; Function Attrs: mustprogress nounwind uwtable
define dso_local { i32, ptr } @_ZN4llvm3sys2fs15openFileForReadERKNS_5TwineERiNS1_9OpenFlagsEPNS_15SmallVectorImplIcEE(ptr noundef nonnull align 8 dereferenceable(34) %0, ptr nocapture noundef nonnull align 4 dereferenceable(4) %1, i32 noundef %2, ptr noundef %3) local_unnamed_addr #0 {
  %5 = alloca [4096 x i8], align 16
  %6 = alloca [64 x i8], align 16
  %7 = alloca %"class.llvm::SmallString.10", align 8
  %8 = tail call { i32, ptr } @_ZN4llvm3sys2fs8openFileERKNS_5TwineERiNS1_19CreationDispositionENS1_10FileAccessENS1_9OpenFlagsEj(ptr noundef nonnull align 8 dereferenceable(34) %0, ptr noundef nonnull align 4 dereferenceable(4) %1, i32 noundef 2, i32 noundef 1, i32 noundef %2, i32 noundef 438)
  %9 = extractvalue { i32, ptr } %8, 0
  %10 = extractvalue { i32, ptr } %8, 1
  %.not15 = icmp eq i32 %9, 0
  br i1 %.not15, label %11, label %46

11:                                               ; preds = %4
  %.not = icmp eq ptr %3, null
  br i1 %.not, label %.sink.split, label %12

12:                                               ; preds = %11
  %13 = tail call noundef i64 @_ZNK4llvm15SmallVectorBaseImE4sizeEv(ptr noundef nonnull align 8 dereferenceable(24) %3) #30
  %14 = getelementptr inbounds nuw i8, ptr %3, i64 8
  store i64 0, ptr %14, align 8
  %15 = load atomic i8, ptr @_ZGVZN4llvm3sys2fsL13hasProcSelfFDEvE6Result acquire, align 8
  %16 = icmp eq i8 %15, 0
  br i1 %16, label %17, label %_ZN4llvm3sys2fsL13hasProcSelfFDEv.exit, !prof !86

17:                                               ; preds = %12
  %18 = tail call i32 @__cxa_guard_acquire(ptr nonnull @_ZGVZN4llvm3sys2fsL13hasProcSelfFDEvE6Result) #30
  %.not.i = icmp eq i32 %18, 0
  br i1 %.not.i, label %_ZN4llvm3sys2fsL13hasProcSelfFDEv.exit, label %19

19:                                               ; preds = %17
  %20 = tail call i32 @access(ptr noundef nonnull @.str.21, i32 noundef 4) #30
  %21 = icmp eq i32 %20, 0
  %22 = zext i1 %21 to i8
  store i8 %22, ptr @_ZZN4llvm3sys2fsL13hasProcSelfFDEvE6Result, align 1
  tail call void @__cxa_guard_release(ptr nonnull @_ZGVZN4llvm3sys2fsL13hasProcSelfFDEvE6Result) #30
  br label %_ZN4llvm3sys2fsL13hasProcSelfFDEv.exit

_ZN4llvm3sys2fsL13hasProcSelfFDEv.exit:           ; preds = %12, %17, %19
  %23 = load i8, ptr @_ZZN4llvm3sys2fsL13hasProcSelfFDEvE6Result, align 1
  %24 = trunc nuw i8 %23 to i1
  br i1 %24, label %25, label %32

25:                                               ; preds = %_ZN4llvm3sys2fsL13hasProcSelfFDEv.exit
  %26 = load i32, ptr %1, align 4
  %27 = call i32 (ptr, i64, ptr, ...) @snprintf(ptr noundef nonnull dereferenceable(1) %6, i64 noundef 64, ptr noundef nonnull @.str.10, i32 noundef %26) #30
  %28 = call i64 @readlink(ptr noundef nonnull %6, ptr noundef nonnull %5, i64 noundef 4096) #30
  %29 = icmp sgt i64 %28, 0
  br i1 %29, label %30, label %.sink.split

30:                                               ; preds = %25
  %31 = getelementptr inbounds i8, ptr %5, i64 %28
  call void @_ZN4llvm15SmallVectorImplIcE6appendIPcvEEvT_S4_(ptr noundef nonnull align 8 dereferenceable(24) %3, ptr noundef nonnull %5, ptr noundef nonnull %31)
  br label %.sink.split

32:                                               ; preds = %_ZN4llvm3sys2fsL13hasProcSelfFDEv.exit
  %33 = getelementptr inbounds i8, ptr %7, i64 24
  call void @_ZN4llvm15SmallVectorBaseImEC2EPvm(ptr noundef nonnull align 8 dereferenceable(24) %7, ptr noundef nonnull %33, i64 noundef 128) #30
  %34 = call { ptr, i64 } @_ZNK4llvm5Twine25toNullTerminatedStringRefERNS_15SmallVectorImplIcEE(ptr noundef nonnull align 8 dereferenceable(34) %0, ptr noundef nonnull align 8 dereferenceable(24) %7) #30
  %35 = extractvalue { ptr, i64 } %34, 0
  %36 = call ptr @realpath(ptr noundef %35, ptr noundef nonnull %5) #30
  %.not11 = icmp eq ptr %36, null
  br i1 %.not11, label %40, label %37

37:                                               ; preds = %32
  %38 = call i64 @strlen(ptr noundef nonnull dereferenceable(1) %5) #29
  %39 = getelementptr inbounds i8, ptr %5, i64 %38
  call void @_ZN4llvm15SmallVectorImplIcE6appendIPcvEEvT_S4_(ptr noundef nonnull align 8 dereferenceable(24) %3, ptr noundef nonnull %5, ptr noundef nonnull %39)
  br label %40

40:                                               ; preds = %37, %32
  %41 = call noundef i64 @_ZNK4llvm15SmallVectorBaseImE4sizeEv(ptr noundef nonnull align 8 dereferenceable(24) %7) #30
  %42 = load ptr, ptr %7, align 8
  %43 = icmp eq ptr %42, %33
  br i1 %43, label %.sink.split, label %44

44:                                               ; preds = %40
  call void @free(ptr noundef %42) #30
  br label %.sink.split

.sink.split:                                      ; preds = %30, %25, %40, %44, %11
  %45 = tail call noundef nonnull align 8 dereferenceable(8) ptr @_ZNSt3_V215system_categoryEv() #33
  br label %46

46:                                               ; preds = %.sink.split, %4
  %.sroa.5.0 = phi ptr [ %10, %4 ], [ %45, %.sink.split ]
  %.fca.1.insert = insertvalue { i32, ptr } %8, ptr %.sroa.5.0, 1
  ret { i32, ptr } %.fca.1.insert
}